; ModuleID = '22/45.c'
source_filename = "22/45.c"
target datalayout = "e-m:e-p270:32:32-p271:32:32-p272:64:64-i64:64-f80:128-n8:16:32:64-S128"
target triple = "x86_64-pc-linux-gnu"

@.str = private unnamed_addr constant [3 x i8] c"%s\00", align 1
@.str.1 = private unnamed_addr constant [3 x i8] c"No\00", align 1
@.str.2 = private unnamed_addr constant [3 x i8] c"%d\00", align 1

; Function Attrs: noinline nounwind uwtable
define dso_local i32 @checkprime(i32 %0) #0 {
  %2 = alloca i32, align 4
  %3 = alloca i32, align 4
  %4 = alloca i32, align 4
  store i32 %0, i32* %3, align 4
  %5 = load i32, i32* %3, align 4
  %6 = icmp eq i32 %5, 2
  br i1 %6, label %7, label %8

7:                                                ; preds = %1
  store i32 1, i32* %2, align 4
  br label %28

8:                                                ; preds = %1
  store i32 2, i32* %4, align 4
  br label %9

9:                                                ; preds = %24, %8
  %10 = load i32, i32* %4, align 4
  %11 = sitofp i32 %10 to double
  %12 = load i32, i32* %3, align 4
  %13 = sitofp i32 %12 to double
  %14 = call double @sqrt(double %13) #4
  %15 = fadd double %14, 1.000000e+00
  %16 = fcmp ole double %11, %15
  br i1 %16, label %17, label %27

17:                                               ; preds = %9
  %18 = load i32, i32* %3, align 4
  %19 = load i32, i32* %4, align 4
  %20 = srem i32 %18, %19
  %21 = icmp eq i32 %20, 0
  br i1 %21, label %22, label %23

22:                                               ; preds = %17
  store i32 0, i32* %2, align 4
  br label %28

23:                                               ; preds = %17
  br label %24

24:                                               ; preds = %23
  %25 = load i32, i32* %4, align 4
  %26 = add nsw i32 %25, 1
  store i32 %26, i32* %4, align 4
  br label %9

27:                                               ; preds = %9
  store i32 1, i32* %2, align 4
  br label %28

28:                                               ; preds = %27, %22, %7
  %29 = load i32, i32* %2, align 4
  ret i32 %29
}

; Function Attrs: nounwind
declare dso_local double @sqrt(double) #1

; Function Attrs: noinline nounwind uwtable
define dso_local i32 @zuida(i32 %0, i32 %1) #0 {
  %3 = alloca i32, align 4
  %4 = alloca i32, align 4
  %5 = alloca i32, align 4
  store i32 %0, i32* %4, align 4
  store i32 %1, i32* %5, align 4
  %6 = load i32, i32* %5, align 4
  %7 = icmp eq i32 %6, 1
  br i1 %7, label %8, label %9

8:                                                ; preds = %2
  store i32 1, i32* %3, align 4
  br label %22

9:                                                ; preds = %2
  %10 = load i32, i32* %4, align 4
  %11 = load i32, i32* %5, align 4
  %12 = srem i32 %10, %11
  %13 = icmp eq i32 %12, 0
  br i1 %13, label %14, label %16

14:                                               ; preds = %9
  %15 = load i32, i32* %5, align 4
  store i32 %15, i32* %3, align 4
  br label %22

16:                                               ; preds = %9
  %17 = load i32, i32* %5, align 4
  %18 = load i32, i32* %4, align 4
  %19 = load i32, i32* %5, align 4
  %20 = srem i32 %18, %19
  %21 = call i32 @zuida(i32 %17, i32 %20)
  store i32 %21, i32* %3, align 4
  br label %22

22:                                               ; preds = %16, %14, %8
  %23 = load i32, i32* %3, align 4
  ret i32 %23
}

; Function Attrs: noinline nounwind uwtable
define dso_local i32 @main() #0 {
  %1 = alloca i32, align 4
  %2 = alloca i32, align 4
  %3 = alloca i32, align 4
  %4 = alloca [400 x i32], align 16
  %5 = alloca i32, align 4
  %6 = alloca i32, align 4
  %7 = alloca i32, align 4
  %8 = alloca i8*, align 8
  %9 = alloca [1300 x i8], align 16
  store i32 0, i32* %1, align 4
  store i32 0, i32* %5, align 4
  store i32 0, i32* %6, align 4
  store i32 0, i32* %7, align 4
  %10 = getelementptr inbounds [1300 x i8], [1300 x i8]* %9, i64 0, i64 0
  %11 = call i32 (i8*, ...) @__isoc99_scanf(i8* getelementptr inbounds ([3 x i8], [3 x i8]* @.str, i64 0, i64 0), i8* %10)
  %12 = getelementptr inbounds [400 x i32], [400 x i32]* %4, i64 0, i64 0
  %13 = bitcast i32* %12 to i8*
  call void @llvm.memset.p0i8.i64(i8* align 16 %13, i8 0, i64 1600, i1 false)
  %14 = getelementptr inbounds [1300 x i8], [1300 x i8]* %9, i64 0, i64 0
  store i8* %14, i8** %8, align 8
  br label %15

15:                                               ; preds = %43, %0
  %16 = load i8*, i8** %8, align 8
  %17 = load i8, i8* %16, align 1
  %18 = sext i8 %17 to i32
  %19 = icmp ne i32 %18, 0
  br i1 %19, label %20, label %46

20:                                               ; preds = %15
  %21 = load i8*, i8** %8, align 8
  %22 = load i8, i8* %21, align 1
  %23 = sext i8 %22 to i32
  %24 = icmp eq i32 %23, 44
  br i1 %24, label %25, label %28

25:                                               ; preds = %20
  %26 = load i32, i32* %5, align 4
  %27 = add nsw i32 %26, 1
  store i32 %27, i32* %5, align 4
  br label %42

28:                                               ; preds = %20
  %29 = load i32, i32* %5, align 4
  %30 = sext i32 %29 to i64
  %31 = getelementptr inbounds [400 x i32], [400 x i32]* %4, i64 0, i64 %30
  %32 = load i32, i32* %31, align 4
  %33 = mul nsw i32 %32, 10
  %34 = load i8*, i8** %8, align 8
  %35 = load i8, i8* %34, align 1
  %36 = sext i8 %35 to i32
  %37 = sub nsw i32 %36, 48
  %38 = add nsw i32 %33, %37
  %39 = load i32, i32* %5, align 4
  %40 = sext i32 %39 to i64
  %41 = getelementptr inbounds [400 x i32], [400 x i32]* %4, i64 0, i64 %40
  store i32 %38, i32* %41, align 4
  br label %42

42:                                               ; preds = %28, %25
  br label %43

43:                                               ; preds = %42
  %44 = load i8*, i8** %8, align 8
  %45 = getelementptr inbounds i8, i8* %44, i32 1
  store i8* %45, i8** %8, align 8
  br label %15

46:                                               ; preds = %15
  %47 = load i32, i32* %5, align 4
  %48 = icmp eq i32 %47, 0
  br i1 %48, label %49, label %51

49:                                               ; preds = %46
  %50 = call i32 (i8*, ...) @printf(i8* getelementptr inbounds ([3 x i8], [3 x i8]* @.str.1, i64 0, i64 0))
  store i32 0, i32* %1, align 4
  br label %141

51:                                               ; preds = %46
  store i32 0, i32* %2, align 4
  br label %52

52:                                               ; preds = %69, %51
  %53 = load i32, i32* %2, align 4
  %54 = load i32, i32* %5, align 4
  %55 = icmp sle i32 %53, %54
  br i1 %55, label %56, label %72

56:                                               ; preds = %52
  %57 = load i32, i32* %2, align 4
  %58 = sext i32 %57 to i64
  %59 = getelementptr inbounds [400 x i32], [400 x i32]* %4, i64 0, i64 %58
  %60 = load i32, i32* %59, align 4
  %61 = load i32, i32* %6, align 4
  %62 = sext i32 %61 to i64
  %63 = getelementptr inbounds [400 x i32], [400 x i32]* %4, i64 0, i64 %62
  %64 = load i32, i32* %63, align 4
  %65 = icmp sgt i32 %60, %64
  br i1 %65, label %66, label %68

66:                                               ; preds = %56
  %67 = load i32, i32* %2, align 4
  store i32 %67, i32* %6, align 4
  br label %68

68:                                               ; preds = %66, %56
  br label %69

69:                                               ; preds = %68
  %70 = load i32, i32* %2, align 4
  %71 = add nsw i32 %70, 1
  store i32 %71, i32* %2, align 4
  br label %52

72:                                               ; preds = %52
  store i32 0, i32* %2, align 4
  br label %73

73:                                               ; preds = %89, %72
  %74 = load i32, i32* %2, align 4
  %75 = load i32, i32* %5, align 4
  %76 = icmp sle i32 %74, %75
  br i1 %76, label %77, label %92

77:                                               ; preds = %73
  %78 = load i32, i32* %2, align 4
  %79 = sext i32 %78 to i64
  %80 = getelementptr inbounds [400 x i32], [400 x i32]* %4, i64 0, i64 %79
  %81 = load i32, i32* %80, align 4
  %82 = load i32, i32* %6, align 4
  %83 = sext i32 %82 to i64
  %84 = getelementptr inbounds [400 x i32], [400 x i32]* %4, i64 0, i64 %83
  %85 = load i32, i32* %84, align 4
  %86 = icmp slt i32 %81, %85
  br i1 %86, label %87, label %88

87:                                               ; preds = %77
  br label %92

88:                                               ; preds = %77
  br label %89

89:                                               ; preds = %88
  %90 = load i32, i32* %2, align 4
  %91 = add nsw i32 %90, 1
  store i32 %91, i32* %2, align 4
  br label %73

92:                                               ; preds = %87, %73
  %93 = load i32, i32* %2, align 4
  %94 = load i32, i32* %5, align 4
  %95 = add nsw i32 %94, 1
  %96 = icmp eq i32 %93, %95
  br i1 %96, label %97, label %99

97:                                               ; preds = %92
  %98 = call i32 (i8*, ...) @printf(i8* getelementptr inbounds ([3 x i8], [3 x i8]* @.str.1, i64 0, i64 0))
  store i32 0, i32* %1, align 4
  br label %141

99:                                               ; preds = %92
  %100 = load i32, i32* %2, align 4
  store i32 %100, i32* %7, align 4
  %101 = load i32, i32* %2, align 4
  store i32 %101, i32* %3, align 4
  br label %102

102:                                              ; preds = %131, %99
  %103 = load i32, i32* %3, align 4
  %104 = load i32, i32* %5, align 4
  %105 = icmp sle i32 %103, %104
  br i1 %105, label %106, label %134

106:                                              ; preds = %102
  %107 = load i32, i32* %3, align 4
  %108 = sext i32 %107 to i64
  %109 = getelementptr inbounds [400 x i32], [400 x i32]* %4, i64 0, i64 %108
  %110 = load i32, i32* %109, align 4
  %111 = load i32, i32* %6, align 4
  %112 = sext i32 %111 to i64
  %113 = getelementptr inbounds [400 x i32], [400 x i32]* %4, i64 0, i64 %112
  %114 = load i32, i32* %113, align 4
  %115 = icmp eq i32 %110, %114
  br i1 %115, label %116, label %117

116:                                              ; preds = %106
  br label %131

117:                                              ; preds = %106
  %118 = load i32, i32* %3, align 4
  %119 = sext i32 %118 to i64
  %120 = getelementptr inbounds [400 x i32], [400 x i32]* %4, i64 0, i64 %119
  %121 = load i32, i32* %120, align 4
  %122 = load i32, i32* %7, align 4
  %123 = sext i32 %122 to i64
  %124 = getelementptr inbounds [400 x i32], [400 x i32]* %4, i64 0, i64 %123
  %125 = load i32, i32* %124, align 4
  %126 = icmp sgt i32 %121, %125
  br i1 %126, label %127, label %129

127:                                              ; preds = %117
  %128 = load i32, i32* %3, align 4
  store i32 %128, i32* %7, align 4
  br label %129

129:                                              ; preds = %127, %117
  br label %130

130:                                              ; preds = %129
  br label %131

131:                                              ; preds = %130, %116
  %132 = load i32, i32* %3, align 4
  %133 = add nsw i32 %132, 1
  store i32 %133, i32* %3, align 4
  br label %102

134:                                              ; preds = %102
  br label %135

135:                                              ; preds = %134
  %136 = load i32, i32* %7, align 4
  %137 = sext i32 %136 to i64
  %138 = getelementptr inbounds [400 x i32], [400 x i32]* %4, i64 0, i64 %137
  %139 = load i32, i32* %138, align 4
  %140 = call i32 (i8*, ...) @printf(i8* getelementptr inbounds ([3 x i8], [3 x i8]* @.str.2, i64 0, i64 0), i32 %139)
  store i32 0, i32* %1, align 4
  br label %141

141:                                              ; preds = %135, %97, %49
  %142 = load i32, i32* %1, align 4
  ret i32 %142
}

declare dso_local i32 @__isoc99_scanf(i8*, ...) #2

; Function Attrs: argmemonly nounwind willreturn
declare void @llvm.memset.p0i8.i64(i8* nocapture writeonly, i8, i64, i1 immarg) #3

declare dso_local i32 @printf(i8*, ...) #2


!llvm.module.flags = !{!0}
!llvm.ident = !{!1}

!0 = !{i32 1, !"wchar_size", i32 4}
!1 = !{!"clang version 10.0.0-4ubuntu1 "}
